target datalayout = "e-m:e-p270:32:32-p271:32:32-p272:64:64-i64:64-i128:128-f80:128-n8:16:32:64-S128"
target triple = "x86_64-pc-linux-gnu"

%struct.Tuplestorestate = type { i32, i32, i8, i8, i8, i8, i64, i64, i64, i64, ptr, ptr, ptr, ptr, ptr, ptr, ptr, i32, i32, i32, i8, ptr, i32, i32, i32, i32, i64 }
%struct.TSReadPointer = type { i32, i8, i32, i32, i64 }

@.str.1 = private unnamed_addr constant [13 x i8] c"tuplestore.c\00", align 1
@.str.3 = private unnamed_addr constant [44 x i8] c"could not seek in tuplestore temporary file\00", align 1
@.str.4 = private unnamed_addr constant [25 x i8] c"invalid tuplestore state\00", align 1
@__func__.tuplestore_rescan = private unnamed_addr constant [18 x i8] c"tuplestore_rescan\00", align 1

; Function Attrs: nounwind uwtable
define dso_local void @tuplestore_rescan(ptr noundef %0) #0 {
  %2 = alloca ptr, align 8
  %3 = alloca ptr, align 8
  store ptr %0, ptr %2, align 8
  call void @llvm.lifetime.start.p0(i64 8, ptr %3) #7
  %4 = load ptr, ptr %2, align 8
  %5 = getelementptr inbounds nuw %struct.Tuplestorestate, ptr %4, i32 0, i32 21
  %6 = load ptr, ptr %5, align 8
  %7 = load ptr, ptr %2, align 8
  %8 = getelementptr inbounds nuw %struct.Tuplestorestate, ptr %7, i32 0, i32 22
  %9 = load i32, ptr %8, align 8
  %10 = sext i32 %9 to i64
  %11 = getelementptr inbounds %struct.TSReadPointer, ptr %6, i64 %10
  store ptr %11, ptr %3, align 8
  %12 = load ptr, ptr %2, align 8
  %13 = getelementptr inbounds nuw %struct.Tuplestorestate, ptr %12, i32 0, i32 0
  %14 = load i32, ptr %13, align 8
  switch i32 %14, label %48 [
    i32 0, label %15
    i32 1, label %20
    i32 2, label %27
  ]

15:                                               ; preds = %1
  %16 = load ptr, ptr %3, align 8
  %17 = getelementptr inbounds nuw %struct.TSReadPointer, ptr %16, i32 0, i32 1
  store i8 0, ptr %17, align 4
  %18 = load ptr, ptr %3, align 8
  %19 = getelementptr inbounds nuw %struct.TSReadPointer, ptr %18, i32 0, i32 2
  store i32 0, ptr %19, align 8
  br label %59

20:                                               ; preds = %1
  %21 = load ptr, ptr %3, align 8
  %22 = getelementptr inbounds nuw %struct.TSReadPointer, ptr %21, i32 0, i32 1
  store i8 0, ptr %22, align 4
  %23 = load ptr, ptr %3, align 8
  %24 = getelementptr inbounds nuw %struct.TSReadPointer, ptr %23, i32 0, i32 3
  store i32 0, ptr %24, align 4
  %25 = load ptr, ptr %3, align 8
  %26 = getelementptr inbounds nuw %struct.TSReadPointer, ptr %25, i32 0, i32 4
  store i64 0, ptr %26, align 8
  br label %59

27:                                               ; preds = %1
  %28 = load ptr, ptr %3, align 8
  %29 = getelementptr inbounds nuw %struct.TSReadPointer, ptr %28, i32 0, i32 1
  store i8 0, ptr %29, align 4
  %30 = load ptr, ptr %2, align 8
  %31 = getelementptr inbounds nuw %struct.Tuplestorestate, ptr %30, i32 0, i32 10
  %32 = load ptr, ptr %31, align 8
  %33 = call i32 @BufFileSeek(ptr noundef %32, i32 noundef 0, i64 noundef 0, i32 noundef 0)
  %34 = icmp ne i32 %33, 0
  br i1 %34, label %35, label %47

35:                                               ; preds = %27
  br label %36

36:                                               ; preds = %35
  br i1 true, label %37, label %39

37:                                               ; preds = %36
  %38 = call zeroext i1 @errstart_cold(i32 noundef 21, ptr noundef null) #8
  br i1 %38, label %41, label %44

39:                                               ; preds = %36
  %40 = call zeroext i1 @errstart(i32 noundef 21, ptr noundef null)
  br i1 %40, label %41, label %44

41:                                               ; preds = %39, %37
  %42 = call i32 @errcode_for_file_access()
  %43 = call i32 (ptr, ...) @errmsg(ptr noundef @.str.3)
  call void @errfinish(ptr noundef @.str.1, i32 noundef 1308, ptr noundef @__func__.tuplestore_rescan)
  br label %44

44:                                               ; preds = %41, %39, %37
  unreachable

45:                                               ; No predecessors!
  br label %46

46:                                               ; preds = %45
  br label %47

47:                                               ; preds = %46, %27
  br label %59

48:                                               ; preds = %1
  br label %49

49:                                               ; preds = %48
  br i1 true, label %50, label %52

50:                                               ; preds = %49
  %51 = call zeroext i1 @errstart_cold(i32 noundef 21, ptr noundef null) #8
  br i1 %51, label %54, label %56

52:                                               ; preds = %49
  %53 = call zeroext i1 @errstart(i32 noundef 21, ptr noundef null)
  br i1 %53, label %54, label %56

54:                                               ; preds = %52, %50
  %55 = call i32 (ptr, ...) @errmsg_internal(ptr noundef @.str.4)
  call void @errfinish(ptr noundef @.str.1, i32 noundef 1311, ptr noundef @__func__.tuplestore_rescan)
  br label %56

56:                                               ; preds = %54, %52, %50
  unreachable

57:                                               ; No predecessors!
  br label %58

58:                                               ; preds = %57
  br label %59

59:                                               ; preds = %58, %47, %20, %15
  call void @llvm.lifetime.end.p0(i64 8, ptr %3) #7
  ret void
}