; Function Attrs: nounwind uwtable
define dso_local void @tuplestore_rescan(ptr noundef readonly captures(none) %0) local_unnamed_addr #0 {
  %2 = getelementptr inbounds nuw i8, ptr %0, i64 120
  %3 = load ptr, ptr %2, align 8
  %4 = getelementptr inbounds nuw i8, ptr %0, i64 128
  %5 = load i32, ptr %4, align 8
  %6 = sext i32 %5 to i64
  %7 = getelementptr inbounds %struct.TSReadPointer, ptr %3, i64 %6
  %8 = load i32, ptr %0, align 8
  switch i32 %8, label %25 [
    i32 0, label %9
    i32 1, label %12
    i32 2, label %16
  ]

9:                                                ; preds = %1
  %10 = getelementptr inbounds nuw i8, ptr %7, i64 4
  store i8 0, ptr %10, align 4
  %11 = getelementptr inbounds nuw i8, ptr %7, i64 8
  store i32 0, ptr %11, align 8
  br label %28

12:                                               ; preds = %1
  %13 = getelementptr inbounds nuw i8, ptr %7, i64 4
  store i8 0, ptr %13, align 4
  %14 = getelementptr inbounds nuw i8, ptr %7, i64 12
  store i32 0, ptr %14, align 4
  %15 = getelementptr inbounds nuw i8, ptr %7, i64 16
  store i64 0, ptr %15, align 8
  br label %28

16:                                               ; preds = %1
  %17 = getelementptr inbounds nuw i8, ptr %7, i64 4
  store i8 0, ptr %17, align 4
  %18 = getelementptr inbounds nuw i8, ptr %0, i64 48
  %19 = load ptr, ptr %18, align 8
  %20 = tail call i32 @BufFileSeek(ptr noundef %19, i32 noundef 0, i64 noundef 0, i32 noundef 0) #9
  %.not = icmp eq i32 %20, 0
  br i1 %.not, label %28, label %21

21:                                               ; preds = %16
  %22 = tail call zeroext i1 @errstart_cold(i32 noundef 21, ptr noundef null) #10
  tail call void @llvm.assume(i1 %22)
  %23 = tail call i32 @errcode_for_file_access() #9
  %24 = tail call i32 (ptr, ...) @errmsg(ptr noundef nonnull @.str.3) #9
  tail call void @errfinish(ptr noundef nonnull @.str.1, i32 noundef 1308, ptr noundef nonnull @__func__.tuplestore_rescan) #9
  unreachable

25:                                               ; preds = %1
  %26 = tail call zeroext i1 @errstart_cold(i32 noundef 21, ptr noundef null) #10
  tail call void @llvm.assume(i1 %26)
  %27 = tail call i32 (ptr, ...) @errmsg_internal(ptr noundef nonnull @.str.4) #9
  tail call void @errfinish(ptr noundef nonnull @.str.1, i32 noundef 1311, ptr noundef nonnull @__func__.tuplestore_rescan) #9
  unreachable

28:                                               ; preds = %16, %12, %9
  ret void
}